; Function Attrs: mustprogress nofree norecurse nosync nounwind willreturn memory(argmem: readwrite) uwtable
define void @_ZN14debug_module_t14sb_write_startEv(ptr noundef nonnull align 8 captures(none) dereferenceable(1372) %0) local_unnamed_addr #15 align 2 {
  %2 = getelementptr inbounds nuw i8, ptr %0, i64 1364
  %3 = load i32, ptr %2, align 4, !tbaa !59
  %.not.i = icmp ne i32 %3, 0
  %4 = getelementptr inbounds nuw i8, ptr %0, i64 1368
  %5 = load i32, ptr %4, align 8
  %6 = icmp ne i32 %5, 0
  %7 = select i1 %.not.i, i1 true, i1 %6
  br i1 %7, label %12, label %8

8:                                                ; preds = %1
  %9 = getelementptr inbounds nuw i8, ptr %0, i64 1309
  %10 = load i8, ptr %9, align 1, !tbaa !207, !range !14, !noundef !15
  %11 = trunc nuw i8 %10 to i1
  br i1 %11, label %12, label %14

12:                                               ; preds = %8, %1
  %13 = getelementptr inbounds nuw i8, ptr %0, i64 1309
  store i8 1, ptr %13, align 1, !tbaa !207
  br label %15

14:                                               ; preds = %8
  store i32 20, ptr %4, align 8, !tbaa !60
  br label %15

15:                                               ; preds = %14, %12
  ret void
}